target datalayout = "e-m:e-p270:32:32-p271:32:32-p272:64:64-i64:64-i128:128-f80:128-n8:16:32:64-S128"
target triple = "x86_64-pc-linux-gnu"

%struct.darktable_t = type { %struct.dt_codepath_t, i32, i32, ptr, ptr, ptr, ptr, ptr, ptr, ptr, ptr, ptr, ptr, ptr, ptr, ptr, ptr, ptr, ptr, ptr, ptr, ptr, ptr, ptr, ptr, ptr, ptr, ptr, ptr, ptr, [64 x %struct.dt_pthread_mutex_t], %struct.dt_pthread_mutex_t, %struct.dt_pthread_mutex_t, %struct.dt_pthread_mutex_t, %struct.dt_pthread_mutex_t, %struct.dt_pthread_mutex_t, ptr, ptr, ptr, ptr, ptr, ptr, ptr, ptr, ptr, ptr, ptr, ptr, ptr, %struct.dt_lua_state_t, ptr, double, ptr, i32, [47 x i32], i32, i32, ptr, ptr, %struct.dt_sys_resources_t, %struct.dt_backthumb_t, %struct.dt_gimp_t }
%struct.dt_codepath_t = type { i8, [3 x i8] }
%struct.dt_pthread_mutex_t = type { %union.pthread_mutex_t }
%union.pthread_mutex_t = type { %struct.__pthread_mutex_s }
%struct.__pthread_mutex_s = type { i32, i32, i32, i32, i32, i16, i16, %struct.__pthread_internal_list }
%struct.__pthread_internal_list = type { ptr, ptr }
%struct.dt_lua_state_t = type { i32 }
%struct.dt_sys_resources_t = type { i64, i64, ptr, ptr, i32 }
%struct.dt_backthumb_t = type { double, double, i32, i32, i32, i32 }
%struct.dt_gimp_t = type { i32, ptr, ptr, i32, i32 }
%struct.dt_action_t = type { i32, ptr, ptr, ptr, ptr, ptr }
%struct.dt_control_t = type { i32, ptr, %struct.dt_action_t, %struct.dt_action_t, %struct.dt_action_t, %struct.dt_action_t, %struct.dt_action_t, %struct.dt_action_t, %struct.dt_action_t, %struct.dt_action_t, %struct.dt_action_t, %struct.dt_action_t, %struct.dt_action_t, ptr, ptr, ptr, i32, ptr, i32, i32, ptr, ptr, [256 x i8], i32, double, i32, i32, i64, i32, i32, i32, double, double, i32, i32, i32, i32, i32, i32, [8 x [1000 x i8]], i32, i32, %struct.dt_pthread_mutex_t, i32, i32, [2 x [300 x i8]], i32, i32, %struct.dt_pthread_mutex_t, %struct.dt_pthread_mutex_t, %struct.dt_pthread_mutex_t, double, i32, i32, i32, %struct.dt_pthread_mutex_t, %struct.dt_pthread_mutex_t, %union.pthread_cond_t, i32, ptr, i64, i64, ptr, [5 x ptr], [5 x i64], %struct.dt_pthread_mutex_t, [3 x ptr], [3 x i8], [3 x i64], %struct.anon.0, %struct.anon.2 }
%union.pthread_cond_t = type { %struct.__pthread_cond_s }
%struct.__pthread_cond_s = type { %union.__atomic_wide_counter, %union.__atomic_wide_counter, [2 x i32], [2 x i32], i32, i32, [2 x i32] }
%union.__atomic_wide_counter = type { i64 }
%struct.anon.0 = type { ptr, i64, i64, double, %struct.dt_pthread_mutex_t, %struct.anon.1 }
%struct.anon.1 = type { ptr, ptr, ptr, ptr, ptr, ptr }
%struct.anon.2 = type { %struct.anon.3 }
%struct.anon.3 = type { ptr, ptr }
%struct.dt_gui_gtk_t = type { ptr, %struct.dt_gui_widgets_t, %struct.dt_gui_scrollbars_t, i32, ptr, i32, [39 x %struct._GdkRGBA], i32, i32, i32, i32, i32, double, double, double, double, ptr, double, double, double, double, i32, i32, [4096 x i8], i32, i32, i32, %struct.dt_pthread_mutex_t }
%struct.dt_gui_widgets_t = type { ptr, ptr, ptr, ptr, i32, i32, i32 }
%struct.dt_gui_scrollbars_t = type { ptr, ptr, i32 }
%struct._GdkRGBA = type { double, double, double, double }

@darktable = external global %struct.darktable_t, align 8
@.str.32 = private unnamed_addr constant [1 x i8] zeroinitializer, align 1

; Function Attrs: nounwind uwtable
define internal void @_dt_ctl_switch_mode_prepare() #0 {
  %1 = alloca ptr, align 8
  %2 = load ptr, ptr getelementptr inbounds nuw (%struct.darktable_t, ptr @darktable, i32 0, i32 12), align 8, !tbaa !120
  %3 = getelementptr inbounds nuw %struct.dt_control_t, ptr %2, i32 0, i32 28
  store i32 0, ptr %3, align 8, !tbaa !114
  %4 = load ptr, ptr getelementptr inbounds nuw (%struct.darktable_t, ptr @darktable, i32 0, i32 12), align 8, !tbaa !120
  %5 = getelementptr inbounds nuw %struct.dt_control_t, ptr %4, i32 0, i32 29
  store i32 0, ptr %5, align 4, !tbaa !115
  call void @llvm.lifetime.start.p0(i64 8, ptr %1) #10
  %6 = load ptr, ptr getelementptr inbounds nuw (%struct.darktable_t, ptr @darktable, i32 0, i32 14), align 8, !tbaa !121
  %7 = getelementptr inbounds nuw %struct.dt_gui_gtk_t, ptr %6, i32 0, i32 0
  %8 = load ptr, ptr %7, align 8, !tbaa !122
  %9 = call ptr @dt_ui_center(ptr noundef %8)
  store ptr %9, ptr %1, align 8, !tbaa !137
  %10 = load ptr, ptr %1, align 8, !tbaa !137
  call void @gtk_widget_set_tooltip_text(ptr noundef %10, ptr noundef @.str.32)
  %11 = load ptr, ptr %1, align 8, !tbaa !137
  call void @gtk_widget_grab_focus(ptr noundef %11)
  call void @llvm.lifetime.end.p0(i64 8, ptr %1) #10
  ret void
}

; Function Attrs: nounwind uwtable
define internal i32 @_dt_ctl_switch_mode_to(ptr noundef %0) #0 {
  %2 = alloca ptr, align 8
  %3 = alloca ptr, align 8
  store ptr %0, ptr %2, align 8, !tbaa !6
  call void @llvm.lifetime.start.p0(i64 8, ptr %3) #10
  %4 = load ptr, ptr %2, align 8, !tbaa !6
  store ptr %4, ptr %3, align 8, !tbaa !83
  call void @_dt_ctl_switch_mode_prepare()
  %5 = load ptr, ptr getelementptr inbounds nuw (%struct.darktable_t, ptr @darktable, i32 0, i32 11), align 8, !tbaa !14
  %6 = load ptr, ptr %3, align 8, !tbaa !83
  %7 = call i32 @dt_view_manager_switch(ptr noundef %5, ptr noundef %6)
  call void @llvm.lifetime.end.p0(i64 8, ptr %3) #10
  ret i32 0
}